; ModuleID = '29/1654.c'
source_filename = "29/1654.c"
target datalayout = "e-m:e-p270:32:32-p271:32:32-p272:64:64-i64:64-f80:128-n8:16:32:64-S128"
target triple = "x86_64-pc-linux-gnu"

@.str = private unnamed_addr constant [3 x i8] c"%d\00", align 1
@.str.1 = private unnamed_addr constant [6 x i8] c"%.3f\0A\00", align 1

; Function Attrs: noinline nounwind uwtable
define dso_local i32 @main() #0 {
  %1 = alloca i32, align 4
  %2 = alloca i32, align 4
  %3 = alloca i32, align 4
  %4 = alloca i32, align 4
  %5 = alloca i32, align 4
  %6 = alloca [100 x i32], align 16
  %7 = alloca float, align 4
  store i32 0, i32* %1, align 4
  %8 = bitcast [100 x i32]* %6 to i8*
  call void @llvm.memset.p0i8.i64(i8* align 16 %8, i8 0, i64 400, i1 false)
  %9 = bitcast i8* %8 to <{ i32, i32, [98 x i32] }>*
  %10 = getelementptr inbounds <{ i32, i32, [98 x i32] }>, <{ i32, i32, [98 x i32] }>* %9, i32 0, i32 0
  store i32 1, i32* %10, align 16
  %11 = getelementptr inbounds <{ i32, i32, [98 x i32] }>, <{ i32, i32, [98 x i32] }>* %9, i32 0, i32 1
  store i32 2, i32* %11, align 4
  %12 = call i32 (i8*, ...) @__isoc99_scanf(i8* getelementptr inbounds ([3 x i8], [3 x i8]* @.str, i64 0, i64 0), i32* %2)
  store i32 1, i32* %5, align 4
  br label %13

13:                                               ; preds = %61, %0
  %14 = load i32, i32* %5, align 4
  %15 = load i32, i32* %2, align 4
  %16 = icmp sle i32 %14, %15
  br i1 %16, label %17, label %64

17:                                               ; preds = %13
  store float 0.000000e+00, float* %7, align 4
  %18 = call i32 (i8*, ...) @__isoc99_scanf(i8* getelementptr inbounds ([3 x i8], [3 x i8]* @.str, i64 0, i64 0), i32* %3)
  store i32 2, i32* %4, align 4
  br label %19

19:                                               ; preds = %54, %17
  %20 = load i32, i32* %4, align 4
  %21 = load i32, i32* %3, align 4
  %22 = add nsw i32 %21, 1
  %23 = icmp sle i32 %20, %22
  br i1 %23, label %24, label %57

24:                                               ; preds = %19
  %25 = load i32, i32* %4, align 4
  %26 = sub nsw i32 %25, 2
  %27 = sext i32 %26 to i64
  %28 = getelementptr inbounds [100 x i32], [100 x i32]* %6, i64 0, i64 %27
  %29 = load i32, i32* %28, align 4
  %30 = load i32, i32* %4, align 4
  %31 = sub nsw i32 %30, 1
  %32 = sext i32 %31 to i64
  %33 = getelementptr inbounds [100 x i32], [100 x i32]* %6, i64 0, i64 %32
  %34 = load i32, i32* %33, align 4
  %35 = add nsw i32 %29, %34
  %36 = load i32, i32* %4, align 4
  %37 = sext i32 %36 to i64
  %38 = getelementptr inbounds [100 x i32], [100 x i32]* %6, i64 0, i64 %37
  store i32 %35, i32* %38, align 4
  %39 = load float, float* %7, align 4
  %40 = load i32, i32* %4, align 4
  %41 = sub nsw i32 %40, 1
  %42 = sext i32 %41 to i64
  %43 = getelementptr inbounds [100 x i32], [100 x i32]* %6, i64 0, i64 %42
  %44 = load i32, i32* %43, align 4
  %45 = sitofp i32 %44 to float
  %46 = load i32, i32* %4, align 4
  %47 = sub nsw i32 %46, 2
  %48 = sext i32 %47 to i64
  %49 = getelementptr inbounds [100 x i32], [100 x i32]* %6, i64 0, i64 %48
  %50 = load i32, i32* %49, align 4
  %51 = sitofp i32 %50 to float
  %52 = fdiv float %45, %51
  %53 = fadd float %39, %52
  store float %53, float* %7, align 4
  br label %54

54:                                               ; preds = %24
  %55 = load i32, i32* %4, align 4
  %56 = add nsw i32 %55, 1
  store i32 %56, i32* %4, align 4
  br label %19

57:                                               ; preds = %19
  %58 = load float, float* %7, align 4
  %59 = fpext float %58 to double
  %60 = call i32 (i8*, ...) @printf(i8* getelementptr inbounds ([6 x i8], [6 x i8]* @.str.1, i64 0, i64 0), double %59)
  br label %61

61:                                               ; preds = %57
  %62 = load i32, i32* %5, align 4
  %63 = add nsw i32 %62, 1
  store i32 %63, i32* %5, align 4
  br label %13

64:                                               ; preds = %13
  ret i32 0
}

; Function Attrs: argmemonly nounwind willreturn
declare void @llvm.memset.p0i8.i64(i8* nocapture writeonly, i8, i64, i1 immarg) #1

declare dso_local i32 @__isoc99_scanf(i8*, ...) #2

declare dso_local i32 @printf(i8*, ...) #2


!llvm.module.flags = !{!0}
!llvm.ident = !{!1}

!0 = !{i32 1, !"wchar_size", i32 4}
!1 = !{!"clang version 10.0.0-4ubuntu1 "}
